target datalayout = "e-m:e-p270:32:32-p271:32:32-p272:64:64-i64:64-i128:128-f80:128-n8:16:32:64-S128"
target triple = "x86_64-pc-linux-gnu"

%struct._object = type { %union.anon, ptr }
%union.anon = type { i64 }
%struct.xi_session = type { ptr, ptr, i32, i32, ptr, ptr, ptr, %struct._sharedexception, i32 }
%struct._sharedexception = type { ptr, i32, %struct._excinfo }
%struct._excinfo = type { %struct._excinfo_type, ptr, ptr }
%struct._excinfo_type = type { ptr, ptr, ptr, ptr }

@PyExc_ValueError = external global ptr, align 8
@_Py_NoneStruct = external global %struct._object, align 8
@interp_set___main___attrs.kwlist = internal global [4 x ptr] [ptr @.str.33, ptr @.str.85, ptr @.str.34, ptr null], align 16
@.str.86 = private unnamed_addr constant [39 x i8] c"OO|$p:_interpreters.set___main___attrs\00", align 1
@.str.87 = private unnamed_addr constant [20 x i8] c"update __main__ for\00", align 1
@.str.88 = private unnamed_addr constant [34 x i8] c"arg 2 must be a non-empty mapping\00", align 1

; Function Attrs: nounwind uwtable
define internal ptr @interp_set___main___attrs(ptr noundef %0, ptr noundef %1, ptr noundef %2) #0 {
  %4 = alloca ptr, align 8
  %5 = alloca ptr, align 8
  %6 = alloca ptr, align 8
  %7 = alloca ptr, align 8
  %8 = alloca ptr, align 8
  %9 = alloca ptr, align 8
  %10 = alloca i32, align 4
  %11 = alloca i32, align 4
  %12 = alloca i32, align 4
  %13 = alloca ptr, align 8
  %14 = alloca i64, align 8
  %15 = alloca %struct.xi_session, align 8
  store ptr %0, ptr %5, align 8, !tbaa !3
  store ptr %1, ptr %6, align 8, !tbaa !3
  store ptr %2, ptr %7, align 8, !tbaa !3
  call void @llvm.lifetime.start.p0(i64 8, ptr %8) #8
  call void @llvm.lifetime.start.p0(i64 8, ptr %9) #8
  call void @llvm.lifetime.start.p0(i64 4, ptr %10) #8
  store i32 0, ptr %10, align 4, !tbaa !11
  %16 = load ptr, ptr %6, align 8, !tbaa !3
  %17 = load ptr, ptr %7, align 8, !tbaa !3
  %18 = call i32 (ptr, ptr, ptr, ptr, ...) @PyArg_ParseTupleAndKeywords(ptr noundef %16, ptr noundef %17, ptr noundef @.str.86, ptr noundef @interp_set___main___attrs.kwlist, ptr noundef %8, ptr noundef %9, ptr noundef %10)
  %19 = icmp ne i32 %18, 0
  br i1 %19, label %21, label %20

20:                                               ; preds = %3
  store ptr null, ptr %4, align 8
  store i32 1, ptr %11, align 4
  br label %62

21:                                               ; preds = %3
  call void @llvm.lifetime.start.p0(i64 4, ptr %12) #8
  store i32 1, ptr %12, align 4, !tbaa !11
  call void @llvm.lifetime.start.p0(i64 8, ptr %13) #8
  %22 = load ptr, ptr %8, align 8, !tbaa !3
  %23 = load i32, ptr %10, align 4, !tbaa !11
  %24 = load i32, ptr %12, align 4, !tbaa !11
  %25 = call ptr @resolve_interp(ptr noundef %22, i32 noundef %23, i32 noundef %24, ptr noundef @.str.87)
  store ptr %25, ptr %13, align 8, !tbaa !15
  %26 = load ptr, ptr %13, align 8, !tbaa !15
  %27 = icmp eq ptr %26, null
  br i1 %27, label %28, label %29

28:                                               ; preds = %21
  store ptr null, ptr %4, align 8
  store i32 1, ptr %11, align 4
  br label %61

29:                                               ; preds = %21
  %30 = load ptr, ptr %9, align 8, !tbaa !3
  %31 = icmp ne ptr %30, @_Py_NoneStruct
  br i1 %31, label %32, label %47

32:                                               ; preds = %29
  call void @llvm.lifetime.start.p0(i64 8, ptr %14) #8
  %33 = load ptr, ptr %9, align 8, !tbaa !3
  %34 = call i64 @PyObject_Size(ptr noundef %33)
  store i64 %34, ptr %14, align 8, !tbaa !13
  %35 = load i64, ptr %14, align 8, !tbaa !13
  %36 = icmp slt i64 %35, 0
  br i1 %36, label %37, label %38

37:                                               ; preds = %32
  store ptr null, ptr %4, align 8
  store i32 1, ptr %11, align 4
  br label %44

38:                                               ; preds = %32
  %39 = load i64, ptr %14, align 8, !tbaa !13
  %40 = icmp eq i64 %39, 0
  br i1 %40, label %41, label %43

41:                                               ; preds = %38
  %42 = load ptr, ptr @PyExc_ValueError, align 8, !tbaa !3
  call void @PyErr_SetString(ptr noundef %42, ptr noundef @.str.88)
  store ptr null, ptr %4, align 8
  store i32 1, ptr %11, align 4
  br label %44

43:                                               ; preds = %38
  store i32 0, ptr %11, align 4
  br label %44

44:                                               ; preds = %43, %41, %37
  call void @llvm.lifetime.end.p0(i64 8, ptr %14) #8
  %45 = load i32, ptr %11, align 4
  switch i32 %45, label %61 [
    i32 0, label %46
  ]

46:                                               ; preds = %44
  br label %47

47:                                               ; preds = %46, %29
  call void @llvm.lifetime.start.p0(i64 120, ptr %15) #8
  call void @llvm.memset.p0.i64(ptr align 8 %15, i8 0, i64 120, i1 false)
  %48 = load ptr, ptr %13, align 8, !tbaa !15
  %49 = load ptr, ptr %9, align 8, !tbaa !3
  %50 = call i32 @_PyXI_Enter(ptr noundef %15, ptr noundef %48, ptr noundef %49)
  %51 = icmp slt i32 %50, 0
  br i1 %51, label %52, label %59

52:                                               ; preds = %47
  %53 = call ptr @PyErr_Occurred()
  %54 = icmp ne ptr %53, null
  br i1 %54, label %57, label %55

55:                                               ; preds = %52
  %56 = call ptr @_PyXI_ApplyCapturedException(ptr noundef %15)
  br label %58

57:                                               ; preds = %52
  br label %58

58:                                               ; preds = %57, %55
  store ptr null, ptr %4, align 8
  store i32 1, ptr %11, align 4
  br label %60

59:                                               ; preds = %47
  call void @_PyXI_Exit(ptr noundef %15)
  store ptr @_Py_NoneStruct, ptr %4, align 8
  store i32 1, ptr %11, align 4
  br label %60

60:                                               ; preds = %59, %58
  call void @llvm.lifetime.end.p0(i64 120, ptr %15) #8
  br label %61

61:                                               ; preds = %60, %44, %28
  call void @llvm.lifetime.end.p0(i64 8, ptr %13) #8
  call void @llvm.lifetime.end.p0(i64 4, ptr %12) #8
  br label %62

62:                                               ; preds = %61, %20
  call void @llvm.lifetime.end.p0(i64 4, ptr %10) #8
  call void @llvm.lifetime.end.p0(i64 8, ptr %9) #8
  call void @llvm.lifetime.end.p0(i64 8, ptr %8) #8
  %63 = load ptr, ptr %4, align 8
  ret ptr %63
}