; Function Attrs: nounwind uwtable
define internal noundef ptr @interp_set___main___attrs(ptr readnone captures(none) %0, ptr noundef %1, ptr noundef %2) #0 {
  %4 = alloca ptr, align 8
  %5 = alloca ptr, align 8
  %6 = alloca i32, align 4
  %7 = alloca %struct.xi_session, align 8
  call void @llvm.lifetime.start.p0(i64 8, ptr nonnull %4) #7
  call void @llvm.lifetime.start.p0(i64 8, ptr nonnull %5) #7
  call void @llvm.lifetime.start.p0(i64 4, ptr nonnull %6) #7
  store i32 0, ptr %6, align 4, !tbaa !14
  %8 = call i32 (ptr, ptr, ptr, ptr, ...) @PyArg_ParseTupleAndKeywords(ptr noundef %1, ptr noundef %2, ptr noundef nonnull @.str.86, ptr noundef nonnull @interp_set___main___attrs.kwlist, ptr noundef nonnull %4, ptr noundef nonnull %5, ptr noundef nonnull %6) #7
  %.not = icmp eq i32 %8, 0
  br i1 %.not, label %.critedge, label %9

9:                                                ; preds = %3
  %10 = load ptr, ptr %4, align 8, !tbaa !15
  %11 = load i32, ptr %6, align 4, !tbaa !14
  %12 = call fastcc ptr @resolve_interp(ptr noundef %10, i32 noundef %11, i32 noundef 1, ptr noundef nonnull @.str.87)
  %13 = icmp eq ptr %12, null
  br i1 %13, label %.critedge, label %14

14:                                               ; preds = %9
  %15 = load ptr, ptr %5, align 8, !tbaa !15
  %.not12 = icmp eq ptr %15, @_Py_NoneStruct
  br i1 %.not12, label %23, label %16

16:                                               ; preds = %14
  %17 = call i64 @PyObject_Size(ptr noundef %15) #7
  %18 = icmp slt i64 %17, 0
  br i1 %18, label %.critedge, label %19

19:                                               ; preds = %16
  %20 = icmp eq i64 %17, 0
  br i1 %20, label %21, label %._crit_edge

._crit_edge:                                      ; preds = %19
  %.pre = load ptr, ptr %5, align 8, !tbaa !15
  br label %23

21:                                               ; preds = %19
  %22 = load ptr, ptr @PyExc_ValueError, align 8, !tbaa !15
  call void @PyErr_SetString(ptr noundef %22, ptr noundef nonnull @.str.88) #7
  br label %.critedge

23:                                               ; preds = %._crit_edge, %14
  %24 = phi ptr [ %.pre, %._crit_edge ], [ @_Py_NoneStruct, %14 ]
  call void @llvm.lifetime.start.p0(i64 120, ptr nonnull %7) #7
  call void @llvm.memset.p0.i64(ptr noundef nonnull align 8 dereferenceable(120) %7, i8 0, i64 120, i1 false)
  %25 = call i32 @_PyXI_Enter(ptr noundef nonnull %7, ptr noundef nonnull %12, ptr noundef %24) #7
  %26 = icmp slt i32 %25, 0
  br i1 %26, label %27, label %31

27:                                               ; preds = %23
  %28 = call ptr @PyErr_Occurred() #7
  %.not13 = icmp eq ptr %28, null
  br i1 %.not13, label %29, label %32

29:                                               ; preds = %27
  %30 = call ptr @_PyXI_ApplyCapturedException(ptr noundef nonnull %7) #7
  br label %32

31:                                               ; preds = %23
  call void @_PyXI_Exit(ptr noundef nonnull %7) #7
  br label %32

32:                                               ; preds = %29, %27, %31
  %.3 = phi ptr [ @_Py_NoneStruct, %31 ], [ null, %27 ], [ null, %29 ]
  call void @llvm.lifetime.end.p0(i64 120, ptr nonnull %7) #7
  br label %.critedge

.critedge:                                        ; preds = %32, %9, %16, %21, %3
  %.0 = phi ptr [ null, %3 ], [ %.3, %32 ], [ null, %9 ], [ null, %16 ], [ null, %21 ]
  call void @llvm.lifetime.end.p0(i64 4, ptr nonnull %6) #7
  call void @llvm.lifetime.end.p0(i64 8, ptr nonnull %5) #7
  call void @llvm.lifetime.end.p0(i64 8, ptr nonnull %4) #7
  ret ptr %.0
}